target datalayout = "e-m:e-p270:32:32-p271:32:32-p272:64:64-i64:64-i128:128-f80:128-n8:16:32:64-S128"
target triple = "x86_64-pc-linux-gnu"

@.str.54 = private unnamed_addr constant [2 x i8] c",\00", align 1
@.str.55 = private unnamed_addr constant [5 x i8] c"%s%s\00", align 1
@.str.56 = private unnamed_addr constant [1 x i8] zeroinitializer, align 1

; Function Attrs: nounwind uwtable
define dso_local ptr @filter_out_changeable_features(ptr noundef %0) #0 {
  %2 = alloca ptr, align 8
  %3 = alloca ptr, align 8
  %4 = alloca ptr, align 8
  %5 = alloca ptr, align 8
  %6 = alloca ptr, align 8
  %7 = alloca ptr, align 8
  %8 = alloca i32, align 4
  store ptr %0, ptr %3, align 8
  call void @llvm.lifetime.start.p0(i64 8, ptr %4) #10
  store ptr null, ptr %4, align 8
  call void @llvm.lifetime.start.p0(i64 8, ptr %5) #10
  call void @llvm.lifetime.start.p0(i64 8, ptr %6) #10
  call void @llvm.lifetime.start.p0(i64 8, ptr %7) #10
  %9 = load ptr, ptr %3, align 8
  %10 = icmp ne ptr %9, null
  br i1 %10, label %12, label %11

11:                                               ; preds = %1
  store ptr null, ptr %2, align 8
  store i32 1, ptr %8, align 4
  br label %33

12:                                               ; preds = %1
  %13 = load ptr, ptr %3, align 8
  %14 = call ptr @xstrdup(ptr noundef %13)
  store ptr %14, ptr %5, align 8
  %15 = load ptr, ptr %5, align 8
  %16 = call ptr @strtok_r(ptr noundef %15, ptr noundef @.str.54, ptr noundef %7) #10
  store ptr %16, ptr %6, align 8
  br label %17

17:                                               ; preds = %29, %12
  %18 = load ptr, ptr %6, align 8
  %19 = icmp ne ptr %18, null
  br i1 %19, label %20, label %31

20:                                               ; preds = %17
  %21 = load ptr, ptr %6, align 8
  %22 = call zeroext i1 @node_features_g_changeable_feature(ptr noundef %21)
  br i1 %22, label %23, label %24

23:                                               ; preds = %20
  br label %29

24:                                               ; preds = %20
  %25 = load ptr, ptr %4, align 8
  %26 = icmp ne ptr %25, null
  %27 = select i1 %26, ptr @.str.54, ptr @.str.56
  %28 = load ptr, ptr %6, align 8
  call void (ptr, ptr, ...) @_xstrfmtcat(ptr noundef %4, ptr noundef @.str.55, ptr noundef %27, ptr noundef %28)
  br label %29

29:                                               ; preds = %24, %23
  %30 = call ptr @strtok_r(ptr noundef null, ptr noundef @.str.54, ptr noundef %7) #10
  store ptr %30, ptr %6, align 8
  br label %17, !llvm.loop !28

31:                                               ; preds = %17
  call void @slurm_xfree(ptr noundef %5)
  %32 = load ptr, ptr %4, align 8
  store ptr %32, ptr %2, align 8
  store i32 1, ptr %8, align 4
  br label %33

33:                                               ; preds = %31, %11
  call void @llvm.lifetime.end.p0(i64 8, ptr %7) #10
  call void @llvm.lifetime.end.p0(i64 8, ptr %6) #10
  call void @llvm.lifetime.end.p0(i64 8, ptr %5) #10
  call void @llvm.lifetime.end.p0(i64 8, ptr %4) #10
  %34 = load ptr, ptr %2, align 8
  ret ptr %34
}