; Function Attrs: nounwind uwtable
define dso_local ptr @filter_out_changeable_features(ptr noundef %0) local_unnamed_addr #0 {
  %2 = alloca ptr, align 8
  %3 = alloca ptr, align 8
  %4 = alloca ptr, align 8
  call void @llvm.lifetime.start.p0(i64 8, ptr nonnull %2) #15
  store ptr null, ptr %2, align 8
  call void @llvm.lifetime.start.p0(i64 8, ptr nonnull %3) #15
  call void @llvm.lifetime.start.p0(i64 8, ptr nonnull %4) #15
  %.not = icmp eq ptr %0, null
  br i1 %.not, label %15, label %5

5:                                                ; preds = %1
  %6 = tail call ptr @xstrdup(ptr noundef nonnull %0) #15
  store ptr %6, ptr %3, align 8
  %7 = call ptr @strtok_r(ptr noundef %6, ptr noundef nonnull @.str.54, ptr noundef nonnull %4) #15
  %.not810 = icmp eq ptr %7, null
  br i1 %.not810, label %._crit_edge, label %.lr.ph

.lr.ph:                                           ; preds = %5, %12
  %.011 = phi ptr [ %13, %12 ], [ %7, %5 ]
  %8 = call zeroext i1 @node_features_g_changeable_feature(ptr noundef nonnull %.011) #15
  br i1 %8, label %12, label %9

9:                                                ; preds = %.lr.ph
  %10 = load ptr, ptr %2, align 8
  %.not9 = icmp eq ptr %10, null
  %11 = select i1 %.not9, ptr @.str.56, ptr @.str.54
  call void (ptr, ptr, ...) @_xstrfmtcat(ptr noundef nonnull %2, ptr noundef nonnull @.str.55, ptr noundef nonnull %11, ptr noundef nonnull %.011) #15
  br label %12

12:                                               ; preds = %.lr.ph, %9
  %13 = call ptr @strtok_r(ptr noundef null, ptr noundef nonnull @.str.54, ptr noundef nonnull %4) #15
  %.not8 = icmp eq ptr %13, null
  br i1 %.not8, label %._crit_edge, label %.lr.ph, !llvm.loop !27

._crit_edge:                                      ; preds = %12, %5
  call void @slurm_xfree(ptr noundef nonnull %3) #15
  %14 = load ptr, ptr %2, align 8
  br label %15

15:                                               ; preds = %1, %._crit_edge
  %.06 = phi ptr [ %14, %._crit_edge ], [ null, %1 ]
  call void @llvm.lifetime.end.p0(i64 8, ptr nonnull %4) #15
  call void @llvm.lifetime.end.p0(i64 8, ptr nonnull %3) #15
  call void @llvm.lifetime.end.p0(i64 8, ptr nonnull %2) #15
  ret ptr %.06
}